; Function Attrs: nounwind uwtable
define noalias noundef ptr @Proof_DeriveCore(ptr noundef readonly captures(none) %0, i32 noundef %1) local_unnamed_addr #3 {
  %3 = alloca i32, align 4
  %4 = alloca %struct.Vec_Int_t_, align 8
  store i32 %1, ptr %3, align 4, !tbaa !18
  call void @llvm.lifetime.start.p0(i64 16, ptr nonnull %4) #18
  store i32 1, ptr %4, align 8, !tbaa !23
  %5 = getelementptr inbounds nuw i8, ptr %4, i64 4
  store i32 1, ptr %5, align 4, !tbaa !14
  %6 = getelementptr inbounds nuw i8, ptr %4, i64 8
  store ptr %3, ptr %6, align 8, !tbaa !17
  %7 = icmp eq i32 %1, -1
  br i1 %7, label %17, label %8

8:                                                ; preds = %2
  %9 = call ptr @Proof_CollectUsedIter(ptr noundef %0, ptr noundef nonnull %4, i32 poison)
  %10 = call ptr @Sat_ProofCollectCore(ptr noundef %0, ptr noundef %9)
  %11 = getelementptr inbounds nuw i8, ptr %9, i64 8
  %12 = load ptr, ptr %11, align 8, !tbaa !17
  %.not.i = icmp eq ptr %12, null
  br i1 %.not.i, label %Vec_IntFree.exit, label %13

13:                                               ; preds = %8
  call void @free(ptr noundef nonnull %12) #18
  br label %Vec_IntFree.exit

Vec_IntFree.exit:                                 ; preds = %8, %13
  call void @free(ptr noundef nonnull %9) #18
  %14 = getelementptr i8, ptr %10, i64 4
  %.val = load i32, ptr %14, align 4, !tbaa !14
  %15 = getelementptr i8, ptr %10, i64 8
  %.val8 = load ptr, ptr %15, align 8, !tbaa !17
  %16 = sext i32 %.val to i64
  call void @qsort(ptr noundef %.val8, i64 noundef %16, i64 noundef 4, ptr noundef nonnull @Vec_IntSortCompare2) #18
  br label %17

17:                                               ; preds = %2, %Vec_IntFree.exit
  %.0 = phi ptr [ %10, %Vec_IntFree.exit ], [ null, %2 ]
  call void @llvm.lifetime.end.p0(i64 16, ptr nonnull %4) #18
  ret ptr %.0
}